target datalayout = "e-m:e-p270:32:32-p271:32:32-p272:64:64-i64:64-i128:128-f80:128-n8:16:32:64-S128"
target triple = "x86_64-pc-linux-gnu"

%struct.mbedtls_asn1_buf = type { i32, i64, ptr }
%struct.mbedtls_pk_context = type { ptr, ptr }

@.str = private unnamed_addr constant [131 x i8] c"generated/home/dtcxzyw/WorkSpace/Projects/compilers/llvm-opt-benchmark/bench/duckdb/duckdb/third_party/mbedtls/library/pkparse.cpp\00", align 1

; Function Attrs: inlinehint mustprogress nounwind uwtable
define internal noundef ptr @_ZL14mbedtls_pk_rsa18mbedtls_pk_context(ptr %0, ptr %1) #3 {
  %3 = alloca %struct.mbedtls_pk_context, align 8
  %4 = getelementptr inbounds nuw { ptr, ptr }, ptr %3, i32 0, i32 0
  store ptr %0, ptr %4, align 8
  %5 = getelementptr inbounds nuw { ptr, ptr }, ptr %3, i32 0, i32 1
  store ptr %1, ptr %5, align 8
  %6 = getelementptr inbounds nuw %struct.mbedtls_pk_context, ptr %3, i32 0, i32 1
  %7 = load ptr, ptr %6, align 8, !tbaa !29
  ret ptr %7
}

; Function Attrs: mustprogress uwtable
define internal noundef i32 @_ZL13pk_get_pk_algPPhPKhP17mbedtls_pk_type_tP16mbedtls_asn1_buf(ptr noundef %0, ptr noundef %1, ptr noundef %2, ptr noundef %3) #0 {
  %5 = alloca i32, align 4
  %6 = alloca ptr, align 8
  %7 = alloca ptr, align 8
  %8 = alloca ptr, align 8
  %9 = alloca ptr, align 8
  %10 = alloca i32, align 4
  %11 = alloca %struct.mbedtls_asn1_buf, align 8
  %12 = alloca i32, align 4
  store ptr %0, ptr %6, align 8, !tbaa !3
  store ptr %1, ptr %7, align 8, !tbaa !8
  store ptr %2, ptr %8, align 8, !tbaa !21
  store ptr %3, ptr %9, align 8, !tbaa !22
  call void @llvm.lifetime.start.p0(i64 4, ptr %10) #6
  store i32 -110, ptr %10, align 4, !tbaa !12
  call void @llvm.lifetime.start.p0(i64 24, ptr %11) #6
  %13 = load ptr, ptr %9, align 8, !tbaa !22
  call void @llvm.memset.p0.i64(ptr align 8 %13, i8 0, i64 24, i1 false)
  %14 = load ptr, ptr %6, align 8, !tbaa !3
  %15 = load ptr, ptr %7, align 8, !tbaa !8
  %16 = load ptr, ptr %9, align 8, !tbaa !22
  %17 = call i32 @mbedtls_asn1_get_alg(ptr noundef %14, ptr noundef %15, ptr noundef %11, ptr noundef %16)
  store i32 %17, ptr %10, align 4, !tbaa !12
  %18 = icmp ne i32 %17, 0
  br i1 %18, label %19, label %22

19:                                               ; preds = %4
  %20 = load i32, ptr %10, align 4, !tbaa !12
  %21 = call noundef i32 @_ZL17mbedtls_error_addiiPKci(i32 noundef -14976, i32 noundef %20, ptr noundef @.str, i32 noundef 588)
  store i32 %21, ptr %5, align 4
  store i32 1, ptr %12, align 4
  br label %48

22:                                               ; preds = %4
  %23 = load ptr, ptr %8, align 8, !tbaa !21
  %24 = call i32 @mbedtls_oid_get_pk_alg(ptr noundef %11, ptr noundef %23)
  %25 = icmp ne i32 %24, 0
  br i1 %25, label %26, label %27

26:                                               ; preds = %22
  store i32 -15488, ptr %5, align 4
  store i32 1, ptr %12, align 4
  br label %48

27:                                               ; preds = %22
  %28 = load ptr, ptr %8, align 8, !tbaa !21
  %29 = load i32, ptr %28, align 4, !tbaa !14
  %30 = icmp eq i32 %29, 1
  br i1 %30, label %31, label %47

31:                                               ; preds = %27
  %32 = load ptr, ptr %9, align 8, !tbaa !22
  %33 = getelementptr inbounds nuw %struct.mbedtls_asn1_buf, ptr %32, i32 0, i32 0
  %34 = load i32, ptr %33, align 8, !tbaa !24
  %35 = icmp ne i32 %34, 5
  br i1 %35, label %36, label %41

36:                                               ; preds = %31
  %37 = load ptr, ptr %9, align 8, !tbaa !22
  %38 = getelementptr inbounds nuw %struct.mbedtls_asn1_buf, ptr %37, i32 0, i32 0
  %39 = load i32, ptr %38, align 8, !tbaa !24
  %40 = icmp ne i32 %39, 0
  br i1 %40, label %46, label %41

41:                                               ; preds = %36, %31
  %42 = load ptr, ptr %9, align 8, !tbaa !22
  %43 = getelementptr inbounds nuw %struct.mbedtls_asn1_buf, ptr %42, i32 0, i32 1
  %44 = load i64, ptr %43, align 8, !tbaa !26
  %45 = icmp ne i64 %44, 0
  br i1 %45, label %46, label %47

46:                                               ; preds = %41, %36
  store i32 -14976, ptr %5, align 4
  store i32 1, ptr %12, align 4
  br label %48

47:                                               ; preds = %41, %27
  store i32 0, ptr %5, align 4
  store i32 1, ptr %12, align 4
  br label %48

48:                                               ; preds = %47, %46, %26, %19
  call void @llvm.lifetime.end.p0(i64 24, ptr %11) #6
  call void @llvm.lifetime.end.p0(i64 4, ptr %10) #6
  %49 = load i32, ptr %5, align 4
  ret i32 %49
}

; Function Attrs: inlinehint mustprogress nounwind uwtable
define internal noundef i32 @_ZL17mbedtls_error_addiiPKci(i32 noundef %0, i32 noundef %1, ptr noundef %2, i32 noundef %3) #3 {
  %5 = alloca i32, align 4
  %6 = alloca i32, align 4
  %7 = alloca ptr, align 8
  %8 = alloca i32, align 4
  store i32 %0, ptr %5, align 4, !tbaa !12
  store i32 %1, ptr %6, align 4, !tbaa !12
  store ptr %2, ptr %7, align 8, !tbaa !8
  store i32 %3, ptr %8, align 4, !tbaa !12
  %9 = load i32, ptr %5, align 4, !tbaa !12
  %10 = load i32, ptr %6, align 4, !tbaa !12
  %11 = add nsw i32 %9, %10
  ret i32 %11
}

; Function Attrs: mustprogress uwtable
define hidden i32 @mbedtls_pk_parse_subpubkey(ptr noundef %0, ptr noundef %1, ptr noundef %2) #0 {
  %4 = alloca i32, align 4
  %5 = alloca ptr, align 8
  %6 = alloca ptr, align 8
  %7 = alloca ptr, align 8
  %8 = alloca i32, align 4
  %9 = alloca i64, align 8
  %10 = alloca %struct.mbedtls_asn1_buf, align 8
  %11 = alloca i32, align 4
  %12 = alloca ptr, align 8
  %13 = alloca i32, align 4
  %14 = alloca %struct.mbedtls_pk_context, align 8
  store ptr %0, ptr %5, align 8, !tbaa !3
  store ptr %1, ptr %6, align 8, !tbaa !8
  store ptr %2, ptr %7, align 8, !tbaa !10
  call void @llvm.lifetime.start.p0(i64 4, ptr %8) #6
  store i32 -110, ptr %8, align 4, !tbaa !12
  call void @llvm.lifetime.start.p0(i64 8, ptr %9) #6
  call void @llvm.lifetime.start.p0(i64 24, ptr %10) #6
  call void @llvm.lifetime.start.p0(i64 4, ptr %11) #6
  store i32 0, ptr %11, align 4, !tbaa !14
  call void @llvm.lifetime.start.p0(i64 8, ptr %12) #6
  br label %15

15:                                               ; preds = %3
  br label %16

16:                                               ; preds = %15
  br label %17

17:                                               ; preds = %16
  br label %18

18:                                               ; preds = %17
  br label %19

19:                                               ; preds = %18
  br label %20

20:                                               ; preds = %19
  br label %21

21:                                               ; preds = %20
  br label %22

22:                                               ; preds = %21
  br label %23

23:                                               ; preds = %22
  br label %24

24:                                               ; preds = %23
  br label %25

25:                                               ; preds = %24
  br label %26

26:                                               ; preds = %25
  %27 = load ptr, ptr %5, align 8, !tbaa !3
  %28 = load ptr, ptr %6, align 8, !tbaa !8
  %29 = call i32 @mbedtls_asn1_get_tag(ptr noundef %27, ptr noundef %28, ptr noundef %9, i32 noundef 48)
  store i32 %29, ptr %8, align 4, !tbaa !12
  %30 = icmp ne i32 %29, 0
  br i1 %30, label %31, label %34

31:                                               ; preds = %26
  %32 = load i32, ptr %8, align 4, !tbaa !12
  %33 = call noundef i32 @_ZL17mbedtls_error_addiiPKci(i32 noundef -15616, i32 noundef %32, ptr noundef @.str, i32 noundef 628)
  store i32 %33, ptr %4, align 4
  store i32 1, ptr %13, align 4
  br label %105

34:                                               ; preds = %26
  %35 = load ptr, ptr %5, align 8, !tbaa !3
  %36 = load ptr, ptr %35, align 8, !tbaa !8
  %37 = load i64, ptr %9, align 8, !tbaa !16
  %38 = getelementptr inbounds nuw i8, ptr %36, i64 %37
  store ptr %38, ptr %6, align 8, !tbaa !8
  %39 = load ptr, ptr %5, align 8, !tbaa !3
  %40 = load ptr, ptr %6, align 8, !tbaa !8
  %41 = call noundef i32 @_ZL13pk_get_pk_algPPhPKhP17mbedtls_pk_type_tP16mbedtls_asn1_buf(ptr noundef %39, ptr noundef %40, ptr noundef %11, ptr noundef %10)
  store i32 %41, ptr %8, align 4, !tbaa !12
  %42 = icmp ne i32 %41, 0
  br i1 %42, label %43, label %45

43:                                               ; preds = %34
  %44 = load i32, ptr %8, align 4, !tbaa !12
  store i32 %44, ptr %4, align 4
  store i32 1, ptr %13, align 4
  br label %105

45:                                               ; preds = %34
  %46 = load ptr, ptr %5, align 8, !tbaa !3
  %47 = load ptr, ptr %6, align 8, !tbaa !8
  %48 = call i32 @mbedtls_asn1_get_bitstring_null(ptr noundef %46, ptr noundef %47, ptr noundef %9)
  store i32 %48, ptr %8, align 4, !tbaa !12
  %49 = icmp ne i32 %48, 0
  br i1 %49, label %50, label %53

50:                                               ; preds = %45
  %51 = load i32, ptr %8, align 4, !tbaa !12
  %52 = call noundef i32 @_ZL17mbedtls_error_addiiPKci(i32 noundef -15104, i32 noundef %51, ptr noundef @.str, i32 noundef 637)
  store i32 %52, ptr %4, align 4
  store i32 1, ptr %13, align 4
  br label %105

53:                                               ; preds = %45
  %54 = load ptr, ptr %5, align 8, !tbaa !3
  %55 = load ptr, ptr %54, align 8, !tbaa !8
  %56 = load i64, ptr %9, align 8, !tbaa !16
  %57 = getelementptr inbounds nuw i8, ptr %55, i64 %56
  %58 = load ptr, ptr %6, align 8, !tbaa !8
  %59 = icmp ne ptr %57, %58
  br i1 %59, label %60, label %62

60:                                               ; preds = %53
  %61 = call noundef i32 @_ZL17mbedtls_error_addiiPKci(i32 noundef -15104, i32 noundef -102, ptr noundef @.str, i32 noundef 641)
  store i32 %61, ptr %4, align 4
  store i32 1, ptr %13, align 4
  br label %105

62:                                               ; preds = %53
  %63 = load i32, ptr %11, align 4, !tbaa !14
  %64 = call ptr @mbedtls_pk_info_from_type(i32 noundef %63)
  store ptr %64, ptr %12, align 8, !tbaa !18
  %65 = icmp eq ptr %64, null
  br i1 %65, label %66, label %67

66:                                               ; preds = %62
  store i32 -15488, ptr %4, align 4
  store i32 1, ptr %13, align 4
  br label %105

67:                                               ; preds = %62
  %68 = load ptr, ptr %7, align 8, !tbaa !10
  %69 = load ptr, ptr %12, align 8, !tbaa !18
  %70 = call i32 @mbedtls_pk_setup(ptr noundef %68, ptr noundef %69)
  store i32 %70, ptr %8, align 4, !tbaa !12
  %71 = icmp ne i32 %70, 0
  br i1 %71, label %72, label %74

72:                                               ; preds = %67
  %73 = load i32, ptr %8, align 4, !tbaa !12
  store i32 %73, ptr %4, align 4
  store i32 1, ptr %13, align 4
  br label %105

74:                                               ; preds = %67
  %75 = load i32, ptr %11, align 4, !tbaa !14
  %76 = icmp eq i32 %75, 1
  br i1 %76, label %77, label %87

77:                                               ; preds = %74
  %78 = load ptr, ptr %5, align 8, !tbaa !3
  %79 = load ptr, ptr %6, align 8, !tbaa !8
  %80 = load ptr, ptr %7, align 8, !tbaa !10
  call void @llvm.memcpy.p0.p0.i64(ptr align 8 %14, ptr align 8 %80, i64 16, i1 false), !tbaa.struct !20
  %81 = getelementptr inbounds nuw { ptr, ptr }, ptr %14, i32 0, i32 0
  %82 = load ptr, ptr %81, align 8
  %83 = getelementptr inbounds nuw { ptr, ptr }, ptr %14, i32 0, i32 1
  %84 = load ptr, ptr %83, align 8
  %85 = call noundef ptr @_ZL14mbedtls_pk_rsa18mbedtls_pk_context(ptr %82, ptr %84)
  %86 = call noundef i32 @_ZL16pk_get_rsapubkeyPPhPKhP19mbedtls_rsa_context(ptr noundef %78, ptr noundef %79, ptr noundef %85)
  store i32 %86, ptr %8, align 4, !tbaa !12
  br label %88

87:                                               ; preds = %74
  store i32 -15488, ptr %8, align 4, !tbaa !12
  br label %88

88:                                               ; preds = %87, %77
  %89 = load i32, ptr %8, align 4, !tbaa !12
  %90 = icmp eq i32 %89, 0
  br i1 %90, label %91, label %98

91:                                               ; preds = %88
  %92 = load ptr, ptr %5, align 8, !tbaa !3
  %93 = load ptr, ptr %92, align 8, !tbaa !8
  %94 = load ptr, ptr %6, align 8, !tbaa !8
  %95 = icmp ne ptr %93, %94
  br i1 %95, label %96, label %98

96:                                               ; preds = %91
  %97 = call noundef i32 @_ZL17mbedtls_error_addiiPKci(i32 noundef -15104, i32 noundef -102, ptr noundef @.str, i32 noundef 667)
  store i32 %97, ptr %8, align 4, !tbaa !12
  br label %98

98:                                               ; preds = %96, %91, %88
  %99 = load i32, ptr %8, align 4, !tbaa !12
  %100 = icmp ne i32 %99, 0
  br i1 %100, label %101, label %103

101:                                              ; preds = %98
  %102 = load ptr, ptr %7, align 8, !tbaa !10
  call void @mbedtls_pk_free(ptr noundef %102)
  br label %103

103:                                              ; preds = %101, %98
  %104 = load i32, ptr %8, align 4, !tbaa !12
  store i32 %104, ptr %4, align 4
  store i32 1, ptr %13, align 4
  br label %105

105:                                              ; preds = %103, %72, %66, %60, %50, %43, %31
  call void @llvm.lifetime.end.p0(i64 8, ptr %12) #6
  call void @llvm.lifetime.end.p0(i64 4, ptr %11) #6
  call void @llvm.lifetime.end.p0(i64 24, ptr %10) #6
  call void @llvm.lifetime.end.p0(i64 8, ptr %9) #6
  call void @llvm.lifetime.end.p0(i64 4, ptr %8) #6
  %106 = load i32, ptr %4, align 4
  ret i32 %106
}