; Function Attrs: mustprogress uwtable
define hidden i32 @mbedtls_pk_parse_subpubkey(ptr noundef %0, ptr noundef %1, ptr noundef %2) local_unnamed_addr #0 {
  %4 = alloca %struct.mbedtls_asn1_buf, align 8
  %5 = alloca i64, align 8
  %6 = alloca %struct.mbedtls_asn1_buf, align 8
  %7 = alloca i32, align 4
  call void @llvm.lifetime.start.p0(i64 8, ptr nonnull %5) #4
  call void @llvm.lifetime.start.p0(i64 24, ptr nonnull %6) #4
  call void @llvm.lifetime.start.p0(i64 4, ptr nonnull %7) #4
  store i32 0, ptr %7, align 4, !tbaa !3
  %8 = call i32 @mbedtls_asn1_get_tag(ptr noundef %0, ptr noundef %1, ptr noundef nonnull %5, i32 noundef 48)
  %.not = icmp eq i32 %8, 0
  br i1 %.not, label %11, label %9

9:                                                ; preds = %3
  %10 = add nsw i32 %8, -15616
  br label %.thread47

11:                                               ; preds = %3
  %12 = load ptr, ptr %0, align 8, !tbaa !7
  %13 = load i64, ptr %5, align 8, !tbaa !10
  %14 = getelementptr inbounds nuw i8, ptr %12, i64 %13
  call void @llvm.lifetime.start.p0(i64 24, ptr nonnull %4) #4
  call void @llvm.memset.p0.i64(ptr noundef nonnull align 8 dereferenceable(24) %6, i8 0, i64 24, i1 false)
  %15 = call i32 @mbedtls_asn1_get_alg(ptr noundef nonnull %0, ptr noundef %14, ptr noundef nonnull %4, ptr noundef nonnull %6)
  %.not.i = icmp eq i32 %15, 0
  br i1 %.not.i, label %16, label %_ZL13pk_get_pk_algPPhPKhP17mbedtls_pk_type_tP16mbedtls_asn1_buf.exit

16:                                               ; preds = %11
  %17 = call i32 @mbedtls_oid_get_pk_alg(ptr noundef nonnull %4, ptr noundef nonnull %7)
  %.not12.i = icmp eq i32 %17, 0
  br i1 %.not12.i, label %18, label %_ZL13pk_get_pk_algPPhPKhP17mbedtls_pk_type_tP16mbedtls_asn1_buf.exit.thread

18:                                               ; preds = %16
  %19 = load i32, ptr %7, align 4, !tbaa !3
  %20 = icmp eq i32 %19, 1
  br i1 %20, label %21, label %_ZL13pk_get_pk_algPPhPKhP17mbedtls_pk_type_tP16mbedtls_asn1_buf.exit.thread39

21:                                               ; preds = %18
  %22 = load i32, ptr %6, align 8, !tbaa !12
  switch i32 %22, label %_ZL13pk_get_pk_algPPhPKhP17mbedtls_pk_type_tP16mbedtls_asn1_buf.exit.thread [
    i32 5, label %23
    i32 0, label %23
  ]

23:                                               ; preds = %21, %21
  %24 = getelementptr inbounds nuw i8, ptr %6, i64 8
  %25 = load i64, ptr %24, align 8, !tbaa !15
  %.not15.i = icmp eq i64 %25, 0
  br i1 %.not15.i, label %_ZL13pk_get_pk_algPPhPKhP17mbedtls_pk_type_tP16mbedtls_asn1_buf.exit.thread39, label %_ZL13pk_get_pk_algPPhPKhP17mbedtls_pk_type_tP16mbedtls_asn1_buf.exit.thread

_ZL13pk_get_pk_algPPhPKhP17mbedtls_pk_type_tP16mbedtls_asn1_buf.exit.thread39: ; preds = %18, %23
  call void @llvm.lifetime.end.p0(i64 24, ptr nonnull %4) #4
  br label %27

_ZL13pk_get_pk_algPPhPKhP17mbedtls_pk_type_tP16mbedtls_asn1_buf.exit.thread: ; preds = %16, %21, %23
  %.0.i.ph = phi i32 [ -14976, %23 ], [ -14976, %21 ], [ -15488, %16 ]
  call void @llvm.lifetime.end.p0(i64 24, ptr nonnull %4) #4
  br label %.thread47

_ZL13pk_get_pk_algPPhPKhP17mbedtls_pk_type_tP16mbedtls_asn1_buf.exit: ; preds = %11
  %26 = add nsw i32 %15, -14976
  call void @llvm.lifetime.end.p0(i64 24, ptr nonnull %4) #4
  %.not31 = icmp eq i32 %26, 0
  br i1 %.not31, label %27, label %.thread47

27:                                               ; preds = %_ZL13pk_get_pk_algPPhPKhP17mbedtls_pk_type_tP16mbedtls_asn1_buf.exit.thread39, %_ZL13pk_get_pk_algPPhPKhP17mbedtls_pk_type_tP16mbedtls_asn1_buf.exit
  %28 = call i32 @mbedtls_asn1_get_bitstring_null(ptr noundef nonnull %0, ptr noundef %14, ptr noundef nonnull %5)
  %.not32 = icmp eq i32 %28, 0
  br i1 %.not32, label %31, label %29

29:                                               ; preds = %27
  %30 = add nsw i32 %28, -15104
  br label %.thread47

31:                                               ; preds = %27
  %32 = load ptr, ptr %0, align 8, !tbaa !7
  %33 = load i64, ptr %5, align 8, !tbaa !10
  %34 = getelementptr inbounds nuw i8, ptr %32, i64 %33
  %.not33 = icmp eq ptr %34, %14
  br i1 %.not33, label %35, label %.thread47

35:                                               ; preds = %31
  %36 = load i32, ptr %7, align 4, !tbaa !3
  %37 = call ptr @mbedtls_pk_info_from_type(i32 noundef %36)
  %38 = icmp eq ptr %37, null
  br i1 %38, label %.thread47, label %39

39:                                               ; preds = %35
  %40 = call i32 @mbedtls_pk_setup(ptr noundef %2, ptr noundef nonnull %37)
  %.not34 = icmp eq i32 %40, 0
  br i1 %.not34, label %41, label %.thread47

41:                                               ; preds = %39
  %42 = load i32, ptr %7, align 4, !tbaa !3
  %43 = icmp eq i32 %42, 1
  br i1 %43, label %44, label %.thread43

44:                                               ; preds = %41
  %.sroa.2.0..sroa_idx = getelementptr inbounds nuw i8, ptr %2, i64 8
  %.sroa.2.0.copyload = load ptr, ptr %.sroa.2.0..sroa_idx, align 8, !tbaa !16
  %45 = call fastcc noundef i32 @_ZL16pk_get_rsapubkeyPPhPKhP19mbedtls_rsa_context(ptr noundef nonnull %0, ptr noundef %14, ptr noundef %.sroa.2.0.copyload)
  %46 = icmp eq i32 %45, 0
  br i1 %46, label %47, label %.thread43

47:                                               ; preds = %44
  %48 = load ptr, ptr %0, align 8, !tbaa !7
  %.not35 = icmp eq ptr %48, %14
  br i1 %.not35, label %.thread47, label %.thread43

.thread43:                                        ; preds = %44, %47, %41
  %.146 = phi i32 [ -15488, %41 ], [ -15206, %47 ], [ %45, %44 ]
  call void @mbedtls_pk_free(ptr noundef %2)
  br label %.thread47

.thread47:                                        ; preds = %47, %31, %_ZL13pk_get_pk_algPPhPKhP17mbedtls_pk_type_tP16mbedtls_asn1_buf.exit.thread, %.thread43, %39, %35, %_ZL13pk_get_pk_algPPhPKhP17mbedtls_pk_type_tP16mbedtls_asn1_buf.exit, %29, %9
  %.0 = phi i32 [ %10, %9 ], [ %30, %29 ], [ %26, %_ZL13pk_get_pk_algPPhPKhP17mbedtls_pk_type_tP16mbedtls_asn1_buf.exit ], [ -15488, %35 ], [ %40, %39 ], [ %.146, %.thread43 ], [ %.0.i.ph, %_ZL13pk_get_pk_algPPhPKhP17mbedtls_pk_type_tP16mbedtls_asn1_buf.exit.thread ], [ -15206, %31 ], [ 0, %47 ]
  call void @llvm.lifetime.end.p0(i64 4, ptr nonnull %7) #4
  call void @llvm.lifetime.end.p0(i64 24, ptr nonnull %6) #4
  call void @llvm.lifetime.end.p0(i64 8, ptr nonnull %5) #4
  ret i32 %.0
}